target datalayout = "e-m:e-p270:32:32-p271:32:32-p272:64:64-i64:64-i128:128-f80:128-n8:16:32:64-S128"
target triple = "x86_64-pc-linux-gnu"

%struct.strbuf = type { i64, i64, ptr }
%struct.object_id = type { [32 x i8], i32 }
%struct.apply_state = type { ptr, %struct.lock_file, i32, i32, i32, i32, i32, i32, i32, i32, i32, i32, i32, i32, i32, i32, i32, i32, i32, ptr, ptr, i32, i32, ptr, ptr, i32, %struct.strbuf, i32, i32, i32, %struct.string_list, i32, i32, %struct.strset, %struct.strset, i32, i32, %struct.string_list, ptr, ptr, i32, i32, ptr, i32, i32, i32 }
%struct.lock_file = type { ptr }
%struct.strset = type { %struct.strmap }
%struct.strmap = type { %struct.hashmap, ptr, i8 }
%struct.hashmap = type { ptr, ptr, ptr, i32, i32, i32, i32, i8 }
%struct.string_list = type { ptr, i64, i64, i8, ptr }
%struct.patch = type { ptr, ptr, ptr, i32, i32, i32, i32, i32, i32, i32, i32, i32, i32, i16, ptr, ptr, i64, [65 x i8], [65 x i8], ptr, [3 x %struct.object_id] }

@.str.23 = private unnamed_addr constant [1 x i8] zeroinitializer, align 1
@git_gettext_enabled = external global i32, align 4
@sane_ctype = external constant [256 x i8], align 16
@.str.130 = private unnamed_addr constant [10 x i8] c"/dev/null\00", align 1
@.str.147 = private unnamed_addr constant [44 x i8] c"unable to find filename in patch at line %d\00", align 1

; Function Attrs: inlinehint nounwind uwtable
define internal zeroext i1 @skip_prefix(ptr noundef %0, ptr noundef %1, ptr noundef %2) #3 {
  %4 = alloca i1, align 1
  %5 = alloca ptr, align 8
  %6 = alloca ptr, align 8
  %7 = alloca ptr, align 8
  store ptr %0, ptr %5, align 8, !tbaa !11
  store ptr %1, ptr %6, align 8, !tbaa !11
  store ptr %2, ptr %7, align 8, !tbaa !119
  br label %8

8:                                                ; preds = %16, %3
  %9 = load ptr, ptr %6, align 8, !tbaa !11
  %10 = load i8, ptr %9, align 1, !tbaa !57
  %11 = icmp ne i8 %10, 0
  br i1 %11, label %15, label %12

12:                                               ; preds = %8
  %13 = load ptr, ptr %5, align 8, !tbaa !11
  %14 = load ptr, ptr %7, align 8, !tbaa !119
  store ptr %13, ptr %14, align 8, !tbaa !11
  store i1 true, ptr %4, align 1
  br label %27

15:                                               ; preds = %8
  br label %16

16:                                               ; preds = %15
  %17 = load ptr, ptr %5, align 8, !tbaa !11
  %18 = getelementptr inbounds nuw i8, ptr %17, i32 1
  store ptr %18, ptr %5, align 8, !tbaa !11
  %19 = load i8, ptr %17, align 1, !tbaa !57
  %20 = sext i8 %19 to i32
  %21 = load ptr, ptr %6, align 8, !tbaa !11
  %22 = getelementptr inbounds nuw i8, ptr %21, i32 1
  store ptr %22, ptr %6, align 8, !tbaa !11
  %23 = load i8, ptr %21, align 1, !tbaa !57
  %24 = sext i8 %23 to i32
  %25 = icmp eq i32 %20, %24
  br i1 %25, label %8, label %26, !llvm.loop !163

26:                                               ; preds = %16
  store i1 false, ptr %4, align 1
  br label %27

27:                                               ; preds = %26, %12
  %28 = load i1, ptr %4, align 1
  ret i1 %28
}

; Function Attrs: inlinehint nounwind uwtable
define internal i32 @const_error() #3 {
  ret i32 -1
}

; Function Attrs: inlinehint nounwind uwtable
define internal ptr @_(ptr noundef %0) #3 {
  %2 = alloca ptr, align 8
  %3 = alloca ptr, align 8
  store ptr %0, ptr %3, align 8, !tbaa !11
  %4 = load ptr, ptr %3, align 8, !tbaa !11
  %5 = load i8, ptr %4, align 1, !tbaa !57
  %6 = icmp ne i8 %5, 0
  br i1 %6, label %8, label %7

7:                                                ; preds = %1
  store ptr @.str.23, ptr %2, align 8
  br label %16

8:                                                ; preds = %1
  %9 = load i32, ptr @git_gettext_enabled, align 4, !tbaa !39
  %10 = icmp ne i32 %9, 0
  br i1 %10, label %13, label %11

11:                                               ; preds = %8
  %12 = load ptr, ptr %3, align 8, !tbaa !11
  store ptr %12, ptr %2, align 8
  br label %16

13:                                               ; preds = %8
  %14 = load ptr, ptr %3, align 8, !tbaa !11
  %15 = call ptr @dcgettext(ptr noundef null, ptr noundef %14, i32 noundef 5) #12
  store ptr %15, ptr %2, align 8
  br label %16

16:                                               ; preds = %13, %11, %7
  %17 = load ptr, ptr %2, align 8
  ret ptr %17
}

; Function Attrs: inlinehint nounwind uwtable
define internal ptr @xstrdup_or_null(ptr noundef %0) #3 {
  %2 = alloca ptr, align 8
  store ptr %0, ptr %2, align 8, !tbaa !11
  %3 = load ptr, ptr %2, align 8, !tbaa !11
  %4 = icmp ne ptr %3, null
  br i1 %4, label %5, label %8

5:                                                ; preds = %1
  %6 = load ptr, ptr %2, align 8, !tbaa !11
  %7 = call ptr @xstrdup(ptr noundef %6)
  br label %9

8:                                                ; preds = %1
  br label %9

9:                                                ; preds = %8, %5
  %10 = phi ptr [ %7, %5 ], [ null, %8 ]
  ret ptr %10
}

; Function Attrs: nounwind uwtable
define internal i32 @is_dev_null(ptr noundef %0) #0 {
  %2 = alloca ptr, align 8
  store ptr %0, ptr %2, align 8, !tbaa !11
  %3 = load ptr, ptr %2, align 8, !tbaa !11
  %4 = call zeroext i1 @skip_prefix(ptr noundef %3, ptr noundef @.str.130, ptr noundef %2)
  br i1 %4, label %5, label %14

5:                                                ; preds = %1
  %6 = load ptr, ptr %2, align 8, !tbaa !11
  %7 = load i8, ptr %6, align 1, !tbaa !57
  %8 = zext i8 %7 to i64
  %9 = getelementptr inbounds nuw [256 x i8], ptr @sane_ctype, i64 0, i64 %8
  %10 = load i8, ptr %9, align 1, !tbaa !57
  %11 = zext i8 %10 to i32
  %12 = and i32 %11, 1
  %13 = icmp ne i32 %12, 0
  br label %14

14:                                               ; preds = %5, %1
  %15 = phi i1 [ false, %1 ], [ %13, %5 ]
  %16 = zext i1 %15 to i32
  ret i32 %16
}

; Function Attrs: nounwind uwtable
define internal i32 @parse_traditional_patch(ptr noundef %0, ptr noundef %1, ptr noundef %2, ptr noundef %3) #0 {
  %5 = alloca i32, align 4
  %6 = alloca ptr, align 8
  %7 = alloca ptr, align 8
  %8 = alloca ptr, align 8
  %9 = alloca ptr, align 8
  %10 = alloca ptr, align 8
  %11 = alloca i32, align 4
  %12 = alloca i32, align 4
  %13 = alloca ptr, align 8
  %14 = alloca i32, align 4
  store ptr %0, ptr %6, align 8, !tbaa !4
  store ptr %1, ptr %7, align 8, !tbaa !11
  store ptr %2, ptr %8, align 8, !tbaa !11
  store ptr %3, ptr %9, align 8, !tbaa !60
  call void @llvm.lifetime.start.p0(i64 8, ptr %10) #12
  %15 = load ptr, ptr %7, align 8, !tbaa !11
  %16 = getelementptr inbounds i8, ptr %15, i64 4
  store ptr %16, ptr %7, align 8, !tbaa !11
  %17 = load ptr, ptr %8, align 8, !tbaa !11
  %18 = getelementptr inbounds i8, ptr %17, i64 4
  store ptr %18, ptr %8, align 8, !tbaa !11
  %19 = load ptr, ptr %6, align 8, !tbaa !4
  %20 = getelementptr inbounds nuw %struct.apply_state, ptr %19, i32 0, i32 28
  %21 = load i32, ptr %20, align 4, !tbaa !156
  %22 = icmp ne i32 %21, 0
  br i1 %22, label %48, label %23

23:                                               ; preds = %4
  call void @llvm.lifetime.start.p0(i64 4, ptr %11) #12
  call void @llvm.lifetime.start.p0(i64 4, ptr %12) #12
  %24 = load ptr, ptr %6, align 8, !tbaa !4
  %25 = load ptr, ptr %7, align 8, !tbaa !11
  %26 = call i32 @guess_p_value(ptr noundef %24, ptr noundef %25)
  store i32 %26, ptr %11, align 4, !tbaa !39
  %27 = load ptr, ptr %6, align 8, !tbaa !4
  %28 = load ptr, ptr %8, align 8, !tbaa !11
  %29 = call i32 @guess_p_value(ptr noundef %27, ptr noundef %28)
  store i32 %29, ptr %12, align 4, !tbaa !39
  %30 = load i32, ptr %11, align 4, !tbaa !39
  %31 = icmp slt i32 %30, 0
  br i1 %31, label %32, label %34

32:                                               ; preds = %23
  %33 = load i32, ptr %12, align 4, !tbaa !39
  store i32 %33, ptr %11, align 4, !tbaa !39
  br label %34

34:                                               ; preds = %32, %23
  %35 = load i32, ptr %11, align 4, !tbaa !39
  %36 = icmp sle i32 0, %35
  br i1 %36, label %37, label %47

37:                                               ; preds = %34
  %38 = load i32, ptr %11, align 4, !tbaa !39
  %39 = load i32, ptr %12, align 4, !tbaa !39
  %40 = icmp eq i32 %38, %39
  br i1 %40, label %41, label %47

41:                                               ; preds = %37
  %42 = load i32, ptr %11, align 4, !tbaa !39
  %43 = load ptr, ptr %6, align 8, !tbaa !4
  %44 = getelementptr inbounds nuw %struct.apply_state, ptr %43, i32 0, i32 27
  store i32 %42, ptr %44, align 8, !tbaa !30
  %45 = load ptr, ptr %6, align 8, !tbaa !4
  %46 = getelementptr inbounds nuw %struct.apply_state, ptr %45, i32 0, i32 28
  store i32 1, ptr %46, align 4, !tbaa !156
  br label %47

47:                                               ; preds = %41, %37, %34
  call void @llvm.lifetime.end.p0(i64 4, ptr %12) #12
  call void @llvm.lifetime.end.p0(i64 4, ptr %11) #12
  br label %48

48:                                               ; preds = %47, %4
  %49 = load ptr, ptr %7, align 8, !tbaa !11
  %50 = call i32 @is_dev_null(ptr noundef %49)
  %51 = icmp ne i32 %50, 0
  br i1 %51, label %52, label %67

52:                                               ; preds = %48
  %53 = load ptr, ptr %9, align 8, !tbaa !60
  %54 = getelementptr inbounds nuw %struct.patch, ptr %53, i32 0, i32 5
  store i32 1, ptr %54, align 8, !tbaa !79
  %55 = load ptr, ptr %9, align 8, !tbaa !60
  %56 = getelementptr inbounds nuw %struct.patch, ptr %55, i32 0, i32 6
  store i32 0, ptr %56, align 4, !tbaa !80
  %57 = load ptr, ptr %6, align 8, !tbaa !4
  %58 = getelementptr inbounds nuw %struct.apply_state, ptr %57, i32 0, i32 26
  %59 = load ptr, ptr %8, align 8, !tbaa !11
  %60 = load ptr, ptr %6, align 8, !tbaa !4
  %61 = getelementptr inbounds nuw %struct.apply_state, ptr %60, i32 0, i32 27
  %62 = load i32, ptr %61, align 8, !tbaa !30
  %63 = call ptr @find_name_traditional(ptr noundef %58, ptr noundef %59, ptr noundef null, i32 noundef %62)
  store ptr %63, ptr %10, align 8, !tbaa !11
  %64 = load ptr, ptr %10, align 8, !tbaa !11
  %65 = load ptr, ptr %9, align 8, !tbaa !60
  %66 = getelementptr inbounds nuw %struct.patch, ptr %65, i32 0, i32 0
  store ptr %64, ptr %66, align 8, !tbaa !67
  br label %137

67:                                               ; preds = %48
  %68 = load ptr, ptr %8, align 8, !tbaa !11
  %69 = call i32 @is_dev_null(ptr noundef %68)
  %70 = icmp ne i32 %69, 0
  br i1 %70, label %71, label %86

71:                                               ; preds = %67
  %72 = load ptr, ptr %9, align 8, !tbaa !60
  %73 = getelementptr inbounds nuw %struct.patch, ptr %72, i32 0, i32 5
  store i32 0, ptr %73, align 8, !tbaa !79
  %74 = load ptr, ptr %9, align 8, !tbaa !60
  %75 = getelementptr inbounds nuw %struct.patch, ptr %74, i32 0, i32 6
  store i32 1, ptr %75, align 4, !tbaa !80
  %76 = load ptr, ptr %6, align 8, !tbaa !4
  %77 = getelementptr inbounds nuw %struct.apply_state, ptr %76, i32 0, i32 26
  %78 = load ptr, ptr %7, align 8, !tbaa !11
  %79 = load ptr, ptr %6, align 8, !tbaa !4
  %80 = getelementptr inbounds nuw %struct.apply_state, ptr %79, i32 0, i32 27
  %81 = load i32, ptr %80, align 8, !tbaa !30
  %82 = call ptr @find_name_traditional(ptr noundef %77, ptr noundef %78, ptr noundef null, i32 noundef %81)
  store ptr %82, ptr %10, align 8, !tbaa !11
  %83 = load ptr, ptr %10, align 8, !tbaa !11
  %84 = load ptr, ptr %9, align 8, !tbaa !60
  %85 = getelementptr inbounds nuw %struct.patch, ptr %84, i32 0, i32 1
  store ptr %83, ptr %85, align 8, !tbaa !66
  br label %136

86:                                               ; preds = %67
  call void @llvm.lifetime.start.p0(i64 8, ptr %13) #12
  %87 = load ptr, ptr %6, align 8, !tbaa !4
  %88 = getelementptr inbounds nuw %struct.apply_state, ptr %87, i32 0, i32 26
  %89 = load ptr, ptr %7, align 8, !tbaa !11
  %90 = load ptr, ptr %6, align 8, !tbaa !4
  %91 = getelementptr inbounds nuw %struct.apply_state, ptr %90, i32 0, i32 27
  %92 = load i32, ptr %91, align 8, !tbaa !30
  %93 = call ptr @find_name_traditional(ptr noundef %88, ptr noundef %89, ptr noundef null, i32 noundef %92)
  store ptr %93, ptr %13, align 8, !tbaa !11
  %94 = load ptr, ptr %6, align 8, !tbaa !4
  %95 = getelementptr inbounds nuw %struct.apply_state, ptr %94, i32 0, i32 26
  %96 = load ptr, ptr %8, align 8, !tbaa !11
  %97 = load ptr, ptr %13, align 8, !tbaa !11
  %98 = load ptr, ptr %6, align 8, !tbaa !4
  %99 = getelementptr inbounds nuw %struct.apply_state, ptr %98, i32 0, i32 27
  %100 = load i32, ptr %99, align 8, !tbaa !30
  %101 = call ptr @find_name_traditional(ptr noundef %95, ptr noundef %96, ptr noundef %97, i32 noundef %100)
  store ptr %101, ptr %10, align 8, !tbaa !11
  %102 = load ptr, ptr %13, align 8, !tbaa !11
  call void @free(ptr noundef %102) #12
  %103 = load ptr, ptr %7, align 8, !tbaa !11
  %104 = call i32 @has_epoch_timestamp(ptr noundef %103)
  %105 = icmp ne i32 %104, 0
  br i1 %105, label %106, label %114

106:                                              ; preds = %86
  %107 = load ptr, ptr %9, align 8, !tbaa !60
  %108 = getelementptr inbounds nuw %struct.patch, ptr %107, i32 0, i32 5
  store i32 1, ptr %108, align 8, !tbaa !79
  %109 = load ptr, ptr %9, align 8, !tbaa !60
  %110 = getelementptr inbounds nuw %struct.patch, ptr %109, i32 0, i32 6
  store i32 0, ptr %110, align 4, !tbaa !80
  %111 = load ptr, ptr %10, align 8, !tbaa !11
  %112 = load ptr, ptr %9, align 8, !tbaa !60
  %113 = getelementptr inbounds nuw %struct.patch, ptr %112, i32 0, i32 0
  store ptr %111, ptr %113, align 8, !tbaa !67
  br label %135

114:                                              ; preds = %86
  %115 = load ptr, ptr %8, align 8, !tbaa !11
  %116 = call i32 @has_epoch_timestamp(ptr noundef %115)
  %117 = icmp ne i32 %116, 0
  br i1 %117, label %118, label %126

118:                                              ; preds = %114
  %119 = load ptr, ptr %9, align 8, !tbaa !60
  %120 = getelementptr inbounds nuw %struct.patch, ptr %119, i32 0, i32 5
  store i32 0, ptr %120, align 8, !tbaa !79
  %121 = load ptr, ptr %9, align 8, !tbaa !60
  %122 = getelementptr inbounds nuw %struct.patch, ptr %121, i32 0, i32 6
  store i32 1, ptr %122, align 4, !tbaa !80
  %123 = load ptr, ptr %10, align 8, !tbaa !11
  %124 = load ptr, ptr %9, align 8, !tbaa !60
  %125 = getelementptr inbounds nuw %struct.patch, ptr %124, i32 0, i32 1
  store ptr %123, ptr %125, align 8, !tbaa !66
  br label %134

126:                                              ; preds = %114
  %127 = load ptr, ptr %10, align 8, !tbaa !11
  %128 = load ptr, ptr %9, align 8, !tbaa !60
  %129 = getelementptr inbounds nuw %struct.patch, ptr %128, i32 0, i32 1
  store ptr %127, ptr %129, align 8, !tbaa !66
  %130 = load ptr, ptr %10, align 8, !tbaa !11
  %131 = call ptr @xstrdup_or_null(ptr noundef %130)
  %132 = load ptr, ptr %9, align 8, !tbaa !60
  %133 = getelementptr inbounds nuw %struct.patch, ptr %132, i32 0, i32 0
  store ptr %131, ptr %133, align 8, !tbaa !67
  br label %134

134:                                              ; preds = %126, %118
  br label %135

135:                                              ; preds = %134, %106
  call void @llvm.lifetime.end.p0(i64 8, ptr %13) #12
  br label %136

136:                                              ; preds = %135, %71
  br label %137

137:                                              ; preds = %136, %52
  %138 = load ptr, ptr %10, align 8, !tbaa !11
  %139 = icmp ne ptr %138, null
  br i1 %139, label %147, label %140

140:                                              ; preds = %137
  %141 = call ptr @_(ptr noundef @.str.147)
  %142 = load ptr, ptr %6, align 8, !tbaa !4
  %143 = getelementptr inbounds nuw %struct.apply_state, ptr %142, i32 0, i32 32
  %144 = load i32, ptr %143, align 4, !tbaa !35
  %145 = call i32 (ptr, ...) @error(ptr noundef %141, i32 noundef %144)
  %146 = call i32 @const_error()
  store i32 %146, ptr %5, align 4
  store i32 1, ptr %14, align 4
  br label %148

147:                                              ; preds = %137
  store i32 0, ptr %5, align 4
  store i32 1, ptr %14, align 4
  br label %148

148:                                              ; preds = %147, %140
  call void @llvm.lifetime.end.p0(i64 8, ptr %10) #12
  %149 = load i32, ptr %5, align 4
  ret i32 %149
}