; Function Attrs: nounwind uwtable
define internal fastcc range(i32 -1, 1) i32 @parse_traditional_patch(ptr noundef captures(none) %0, ptr noundef %1, ptr noundef %2, ptr noundef writeonly captures(none) %3) unnamed_addr #0 {
  %5 = getelementptr inbounds nuw i8, ptr %1, i64 4
  %6 = getelementptr inbounds nuw i8, ptr %2, i64 4
  %7 = getelementptr inbounds nuw i8, ptr %0, i64 164
  %8 = load i32, ptr %7, align 4, !tbaa !209
  %.not = icmp eq i32 %8, 0
  br i1 %.not, label %9, label %17

9:                                                ; preds = %4
  %10 = tail call fastcc i32 @guess_p_value(ptr noundef nonnull %0, ptr noundef nonnull %5)
  %11 = tail call fastcc i32 @guess_p_value(ptr noundef nonnull %0, ptr noundef nonnull %6)
  %12 = icmp slt i32 %10, 0
  %spec.select = select i1 %12, i32 %11, i32 %10
  %13 = icmp sgt i32 %spec.select, -1
  %14 = icmp eq i32 %spec.select, %11
  %or.cond = select i1 %13, i1 %14, i1 false
  br i1 %or.cond, label %15, label %17

15:                                               ; preds = %9
  %16 = getelementptr inbounds nuw i8, ptr %0, i64 160
  store i32 %11, ptr %16, align 8, !tbaa !26
  store i32 1, ptr %7, align 4, !tbaa !209
  br label %17

17:                                               ; preds = %9, %15, %4
  %scevgep.i = getelementptr i8, ptr %1, i64 13
  br label %18

18:                                               ; preds = %19, %17
  %.07.i.i = phi ptr [ %5, %17 ], [ %21, %19 ]
  %.06.i.idx.i = phi i64 [ 0, %17 ], [ %.06.i.add.i, %19 ]
  %exitcond.i = icmp eq i64 %.06.i.idx.i, 9
  br i1 %exitcond.i, label %is_dev_null.exit, label %19

19:                                               ; preds = %18
  %.06.i.ptr.i = getelementptr inbounds nuw i8, ptr @.str.130, i64 %.06.i.idx.i
  %20 = load i8, ptr %.06.i.ptr.i, align 1, !tbaa !53
  %21 = getelementptr inbounds nuw i8, ptr %.07.i.i, i64 1
  %22 = load i8, ptr %.07.i.i, align 1, !tbaa !53
  %.06.i.add.i = add nuw nsw i64 %.06.i.idx.i, 1
  %23 = icmp eq i8 %22, %20
  br i1 %23, label %18, label %is_dev_null.exit.thread, !llvm.loop !115

is_dev_null.exit:                                 ; preds = %18
  %24 = load i8, ptr %scevgep.i, align 1, !tbaa !53
  %25 = zext i8 %24 to i64
  %26 = getelementptr inbounds nuw [256 x i8], ptr @sane_ctype, i64 0, i64 %25
  %27 = load i8, ptr %26, align 1, !tbaa !53
  %28 = and i8 %27, 1
  %.not58 = icmp eq i8 %28, 0
  br i1 %.not58, label %is_dev_null.exit.thread, label %29

29:                                               ; preds = %is_dev_null.exit
  %30 = getelementptr inbounds nuw i8, ptr %3, i64 32
  store i32 1, ptr %30, align 8, !tbaa !67
  %31 = getelementptr inbounds nuw i8, ptr %3, i64 36
  store i32 0, ptr %31, align 4, !tbaa !68
  %32 = getelementptr inbounds nuw i8, ptr %0, i64 136
  %33 = getelementptr inbounds nuw i8, ptr %0, i64 160
  %34 = load i32, ptr %33, align 8, !tbaa !26
  %35 = tail call fastcc ptr @find_name_traditional(ptr noundef nonnull %32, ptr noundef nonnull %6, ptr noundef null, i32 noundef %34)
  store ptr %35, ptr %3, align 8, !tbaa !65
  br label %76

is_dev_null.exit.thread:                          ; preds = %19, %is_dev_null.exit
  %scevgep.i63 = getelementptr i8, ptr %2, i64 13
  br label %36

36:                                               ; preds = %37, %is_dev_null.exit.thread
  %.07.i.i64 = phi ptr [ %6, %is_dev_null.exit.thread ], [ %39, %37 ]
  %.06.i.idx.i65 = phi i64 [ 0, %is_dev_null.exit.thread ], [ %.06.i.add.i68, %37 ]
  %exitcond.i66 = icmp eq i64 %.06.i.idx.i65, 9
  br i1 %exitcond.i66, label %is_dev_null.exit69, label %37

37:                                               ; preds = %36
  %.06.i.ptr.i67 = getelementptr inbounds nuw i8, ptr @.str.130, i64 %.06.i.idx.i65
  %38 = load i8, ptr %.06.i.ptr.i67, align 1, !tbaa !53
  %39 = getelementptr inbounds nuw i8, ptr %.07.i.i64, i64 1
  %40 = load i8, ptr %.07.i.i64, align 1, !tbaa !53
  %.06.i.add.i68 = add nuw nsw i64 %.06.i.idx.i65, 1
  %41 = icmp eq i8 %40, %38
  br i1 %41, label %36, label %is_dev_null.exit69.thread, !llvm.loop !115

is_dev_null.exit69:                               ; preds = %36
  %42 = load i8, ptr %scevgep.i63, align 1, !tbaa !53
  %43 = zext i8 %42 to i64
  %44 = getelementptr inbounds nuw [256 x i8], ptr @sane_ctype, i64 0, i64 %43
  %45 = load i8, ptr %44, align 1, !tbaa !53
  %46 = and i8 %45, 1
  %.not59 = icmp eq i8 %46, 0
  br i1 %.not59, label %is_dev_null.exit69.thread, label %47

47:                                               ; preds = %is_dev_null.exit69
  %48 = getelementptr inbounds nuw i8, ptr %3, i64 32
  store i32 0, ptr %48, align 8, !tbaa !67
  %49 = getelementptr inbounds nuw i8, ptr %3, i64 36
  store i32 1, ptr %49, align 4, !tbaa !68
  %50 = getelementptr inbounds nuw i8, ptr %0, i64 136
  %51 = getelementptr inbounds nuw i8, ptr %0, i64 160
  %52 = load i32, ptr %51, align 8, !tbaa !26
  %53 = tail call fastcc ptr @find_name_traditional(ptr noundef nonnull %50, ptr noundef nonnull %5, ptr noundef null, i32 noundef %52)
  %54 = getelementptr inbounds nuw i8, ptr %3, i64 8
  store ptr %53, ptr %54, align 8, !tbaa !64
  br label %76

is_dev_null.exit69.thread:                        ; preds = %37, %is_dev_null.exit69
  %55 = getelementptr inbounds nuw i8, ptr %0, i64 136
  %56 = getelementptr inbounds nuw i8, ptr %0, i64 160
  %57 = load i32, ptr %56, align 8, !tbaa !26
  %58 = tail call fastcc ptr @find_name_traditional(ptr noundef nonnull %55, ptr noundef nonnull %5, ptr noundef null, i32 noundef %57)
  %59 = load i32, ptr %56, align 8, !tbaa !26
  %60 = tail call fastcc ptr @find_name_traditional(ptr noundef nonnull %55, ptr noundef nonnull %6, ptr noundef %58, i32 noundef %59)
  tail call void @free(ptr noundef %58) #21
  %61 = tail call fastcc i32 @has_epoch_timestamp(ptr noundef nonnull %5)
  %.not60 = icmp eq i32 %61, 0
  br i1 %.not60, label %65, label %62

62:                                               ; preds = %is_dev_null.exit69.thread
  %63 = getelementptr inbounds nuw i8, ptr %3, i64 32
  store i32 1, ptr %63, align 8, !tbaa !67
  %64 = getelementptr inbounds nuw i8, ptr %3, i64 36
  store i32 0, ptr %64, align 4, !tbaa !68
  store ptr %60, ptr %3, align 8, !tbaa !65
  br label %76

65:                                               ; preds = %is_dev_null.exit69.thread
  %66 = tail call fastcc i32 @has_epoch_timestamp(ptr noundef nonnull %6)
  %.not61 = icmp eq i32 %66, 0
  br i1 %.not61, label %71, label %67

67:                                               ; preds = %65
  %68 = getelementptr inbounds nuw i8, ptr %3, i64 32
  store i32 0, ptr %68, align 8, !tbaa !67
  %69 = getelementptr inbounds nuw i8, ptr %3, i64 36
  store i32 1, ptr %69, align 4, !tbaa !68
  %70 = getelementptr inbounds nuw i8, ptr %3, i64 8
  store ptr %60, ptr %70, align 8, !tbaa !64
  br label %76

71:                                               ; preds = %65
  %72 = getelementptr inbounds nuw i8, ptr %3, i64 8
  store ptr %60, ptr %72, align 8, !tbaa !64
  %.not.i = icmp eq ptr %60, null
  br i1 %.not.i, label %xstrdup_or_null.exit, label %73

73:                                               ; preds = %71
  %74 = tail call ptr @xstrdup(ptr noundef nonnull %60) #21
  br label %xstrdup_or_null.exit

xstrdup_or_null.exit:                             ; preds = %71, %73
  %75 = phi ptr [ %74, %73 ], [ null, %71 ]
  store ptr %75, ptr %3, align 8, !tbaa !65
  br label %76

76:                                               ; preds = %62, %xstrdup_or_null.exit, %67, %47, %29
  %.056 = phi ptr [ %35, %29 ], [ %53, %47 ], [ %60, %67 ], [ %60, %xstrdup_or_null.exit ], [ %60, %62 ]
  %.not62 = icmp eq ptr %.056, null
  br i1 %.not62, label %77, label %84

77:                                               ; preds = %76
  %78 = load i32, ptr @git_gettext_enabled, align 4, !tbaa !34
  %.not4.i = icmp eq i32 %78, 0
  br i1 %.not4.i, label %_.exit, label %79

79:                                               ; preds = %77
  %80 = tail call ptr @dcgettext(ptr noundef null, ptr noundef nonnull @.str.147, i32 noundef 5) #21
  br label %_.exit

_.exit:                                           ; preds = %77, %79
  %.0.i = phi ptr [ %80, %79 ], [ @.str.147, %77 ]
  %81 = getelementptr inbounds nuw i8, ptr %0, i64 220
  %82 = load i32, ptr %81, align 4, !tbaa !30
  %83 = tail call i32 (ptr, ...) @error(ptr noundef %.0.i, i32 noundef %82) #21
  br label %84

84:                                               ; preds = %76, %_.exit
  %.0 = phi i32 [ -1, %_.exit ], [ 0, %76 ]
  ret i32 %.0
}